target datalayout = "e-m:e-p270:32:32-p271:32:32-p272:64:64-i64:64-i128:128-f80:128-n8:16:32:64-S128"
target triple = "x86_64-pc-linux-gnu"

%struct.ImVec2 = type { float, float }
%struct.ImGuiInputTextState = type <{ ptr, ptr, i32, i32, %struct.ImVector.34, %struct.ImVector.34, %struct.ImVector.34, i32, %struct.ImVec2, float, i8, i8, i8, i8, i32, i8, [3 x i8], i32, i32, [4 x i8] }>
%struct.ImVector.34 = type { i32, i32, ptr }

; Function Attrs: inlinehint mustprogress nounwind uwtable
define linkonce_odr dso_local noundef ptr @_Znwm12ImNewWrapperPv(i64 noundef %0, ptr noundef %1) #2 comdat {
  %3 = alloca i64, align 8
  %4 = alloca ptr, align 8
  store i64 %0, ptr %3, align 8, !tbaa !241
  store ptr %1, ptr %4, align 8, !tbaa !255
  %5 = load ptr, ptr %4, align 8, !tbaa !255
  ret ptr %5
}

; Function Attrs: mustprogress nounwind uwtable
define linkonce_odr dso_local void @_ZN6ImVec2C2Ev(ptr noundef nonnull align 4 dereferenceable(8) %0) unnamed_addr #4 comdat align 2 {
  %2 = alloca ptr, align 8
  store ptr %0, ptr %2, align 8, !tbaa !174
  %3 = load ptr, ptr %2, align 8
  %4 = getelementptr inbounds nuw %struct.ImVec2, ptr %3, i32 0, i32 0
  store float 0.000000e+00, ptr %4, align 4, !tbaa !165
  %5 = getelementptr inbounds nuw %struct.ImVec2, ptr %3, i32 0, i32 1
  store float 0.000000e+00, ptr %5, align 4, !tbaa !164
  ret void
}

; Function Attrs: inlinehint mustprogress nounwind uwtable
define linkonce_odr dso_local void @_ZN8ImVectorIcEC2Ev(ptr noundef nonnull align 8 dereferenceable(16) %0) unnamed_addr #2 comdat align 2 {
  %2 = alloca ptr, align 8
  store ptr %0, ptr %2, align 8, !tbaa !505
  %3 = load ptr, ptr %2, align 8
  %4 = getelementptr inbounds nuw %struct.ImVector.34, ptr %3, i32 0, i32 1
  store i32 0, ptr %4, align 4, !tbaa !507
  %5 = getelementptr inbounds nuw %struct.ImVector.34, ptr %3, i32 0, i32 0
  store i32 0, ptr %5, align 8, !tbaa !508
  %6 = getelementptr inbounds nuw %struct.ImVector.34, ptr %3, i32 0, i32 2
  store ptr null, ptr %6, align 8, !tbaa !509
  ret void
}

; Function Attrs: mustprogress uwtable
define dso_local void @_ZN19ImGuiInputTextStateC2Ev(ptr noundef nonnull align 8 dereferenceable(108) %0) unnamed_addr #8 align 2 personality ptr @__gxx_personality_v0 {
  %2 = alloca ptr, align 8
  %3 = alloca ptr, align 8
  %4 = alloca i32, align 4
  store ptr %0, ptr %2, align 8, !tbaa !420
  %5 = load ptr, ptr %2, align 8
  %6 = getelementptr inbounds nuw %struct.ImGuiInputTextState, ptr %5, i32 0, i32 4
  call void @_ZN8ImVectorIcEC2Ev(ptr noundef nonnull align 8 dereferenceable(16) %6)
  %7 = getelementptr inbounds nuw %struct.ImGuiInputTextState, ptr %5, i32 0, i32 5
  invoke void @_ZN8ImVectorIcEC2Ev(ptr noundef nonnull align 8 dereferenceable(16) %7)
          to label %8 unwind label %18

8:                                                ; preds = %1
  %9 = getelementptr inbounds nuw %struct.ImGuiInputTextState, ptr %5, i32 0, i32 6
  invoke void @_ZN8ImVectorIcEC2Ev(ptr noundef nonnull align 8 dereferenceable(16) %9)
          to label %10 unwind label %22

10:                                               ; preds = %8
  %11 = getelementptr inbounds nuw %struct.ImGuiInputTextState, ptr %5, i32 0, i32 8
  invoke void @_ZN6ImVec2C2Ev(ptr noundef nonnull align 4 dereferenceable(8) %11)
          to label %12 unwind label %26

12:                                               ; preds = %10
  call void @llvm.memset.p0.i64(ptr align 8 %5, i8 0, i64 112, i1 false)
  %13 = invoke noundef ptr @_ZN5ImGui8MemAllocEm(i64 noundef 2628)
          to label %14 unwind label %26

14:                                               ; preds = %12
  %15 = invoke noundef ptr @_Znwm12ImNewWrapperPv(i64 noundef 2628, ptr noundef %13)
          to label %16 unwind label %26

16:                                               ; preds = %14
  %17 = getelementptr inbounds nuw %struct.ImGuiInputTextState, ptr %5, i32 0, i32 1
  store ptr %15, ptr %17, align 8, !tbaa !425
  ret void

18:                                               ; preds = %1
  %19 = landingpad { ptr, i32 }
          cleanup
  %20 = extractvalue { ptr, i32 } %19, 0
  store ptr %20, ptr %3, align 8
  %21 = extractvalue { ptr, i32 } %19, 1
  store i32 %21, ptr %4, align 4
  br label %31

22:                                               ; preds = %8
  %23 = landingpad { ptr, i32 }
          cleanup
  %24 = extractvalue { ptr, i32 } %23, 0
  store ptr %24, ptr %3, align 8
  %25 = extractvalue { ptr, i32 } %23, 1
  store i32 %25, ptr %4, align 4
  br label %30

26:                                               ; preds = %14, %12, %10
  %27 = landingpad { ptr, i32 }
          cleanup
  %28 = extractvalue { ptr, i32 } %27, 0
  store ptr %28, ptr %3, align 8
  %29 = extractvalue { ptr, i32 } %27, 1
  store i32 %29, ptr %4, align 4
  call void @_ZN8ImVectorIcED2Ev(ptr noundef nonnull align 8 dereferenceable(16) %9) #17
  br label %30

30:                                               ; preds = %26, %22
  call void @_ZN8ImVectorIcED2Ev(ptr noundef nonnull align 8 dereferenceable(16) %7) #17
  br label %31

31:                                               ; preds = %30, %18
  call void @_ZN8ImVectorIcED2Ev(ptr noundef nonnull align 8 dereferenceable(16) %6) #17
  br label %32

32:                                               ; preds = %31
  %33 = load ptr, ptr %3, align 8
  %34 = load i32, ptr %4, align 4
  %35 = insertvalue { ptr, i32 } poison, ptr %33, 0
  %36 = insertvalue { ptr, i32 } %35, i32 %34, 1
  resume { ptr, i32 } %36
}