; Function Attrs: mustprogress uwtable
define dso_local void @_ZN19ImGuiInputTextStateC2Ev(ptr noundef nonnull align 8 dereferenceable(108) initializes((0, 112)) %0) unnamed_addr #5 align 2 personality ptr @__gxx_personality_v0 {
  tail call void @llvm.memset.p0.i64(ptr noundef nonnull align 8 dereferenceable(112) %0, i8 0, i64 112, i1 false)
  %2 = invoke noundef ptr @_ZN5ImGui8MemAllocEm(i64 noundef 2628)
          to label %3 unwind label %5

3:                                                ; preds = %1
  %4 = getelementptr inbounds nuw i8, ptr %0, i64 8
  store ptr %2, ptr %4, align 8, !tbaa !374
  ret void

5:                                                ; preds = %1
  %6 = landingpad { ptr, i32 }
          cleanup
  %7 = getelementptr inbounds nuw i8, ptr %0, i64 56
  %8 = getelementptr inbounds nuw i8, ptr %0, i64 40
  %9 = getelementptr inbounds nuw i8, ptr %0, i64 24
  tail call void @_ZN8ImVectorIcED2Ev(ptr noundef nonnull align 8 dereferenceable(16) %7) #43
  tail call void @_ZN8ImVectorIcED2Ev(ptr noundef nonnull align 8 dereferenceable(16) %8) #43
  tail call void @_ZN8ImVectorIcED2Ev(ptr noundef nonnull align 8 dereferenceable(16) %9) #43
  resume { ptr, i32 } %6
}